target datalayout = "e-m:e-p270:32:32-p271:32:32-p272:64:64-i64:64-i128:128-f80:128-n8:16:32:64-S128"
target triple = "x86_64-pc-linux-gnu"

%struct.cli_hashtable = type { ptr, i64, i64, i64 }
%struct.cli_element = type { ptr, i64, i64 }

@DELETED_KEY = internal constant [1 x i8] zeroinitializer, align 1
@.str.4 = private unnamed_addr constant [8 x i8] c"%zu %s\0A\00", align 1

; Function Attrs: nounwind uwtable
define i32 @cli_hashtab_store(ptr noundef %0, ptr noundef %1) #0 {
  %3 = alloca ptr, align 8
  %4 = alloca ptr, align 8
  %5 = alloca i64, align 8
  %6 = alloca ptr, align 8
  store ptr %0, ptr %3, align 8
  store ptr %1, ptr %4, align 8
  store i64 0, ptr %5, align 8
  br label %7

7:                                                ; preds = %38, %2
  %8 = load i64, ptr %5, align 8
  %9 = load ptr, ptr %3, align 8
  %10 = getelementptr inbounds %struct.cli_hashtable, ptr %9, i32 0, i32 1
  %11 = load i64, ptr %10, align 8
  %12 = icmp ult i64 %8, %11
  br i1 %12, label %13, label %41

13:                                               ; preds = %7
  %14 = load ptr, ptr %3, align 8
  %15 = getelementptr inbounds %struct.cli_hashtable, ptr %14, i32 0, i32 0
  %16 = load ptr, ptr %15, align 8
  %17 = load i64, ptr %5, align 8
  %18 = getelementptr inbounds %struct.cli_element, ptr %16, i64 %17
  store ptr %18, ptr %6, align 8
  %19 = load ptr, ptr %6, align 8
  %20 = getelementptr inbounds %struct.cli_element, ptr %19, i32 0, i32 0
  %21 = load ptr, ptr %20, align 8
  %22 = icmp ne ptr %21, null
  br i1 %22, label %23, label %37

23:                                               ; preds = %13
  %24 = load ptr, ptr %6, align 8
  %25 = getelementptr inbounds %struct.cli_element, ptr %24, i32 0, i32 0
  %26 = load ptr, ptr %25, align 8
  %27 = icmp ne ptr %26, @DELETED_KEY
  br i1 %27, label %28, label %37

28:                                               ; preds = %23
  %29 = load ptr, ptr %4, align 8
  %30 = load ptr, ptr %6, align 8
  %31 = getelementptr inbounds %struct.cli_element, ptr %30, i32 0, i32 1
  %32 = load i64, ptr %31, align 8
  %33 = load ptr, ptr %6, align 8
  %34 = getelementptr inbounds %struct.cli_element, ptr %33, i32 0, i32 0
  %35 = load ptr, ptr %34, align 8
  %36 = call i32 (ptr, ptr, ...) @fprintf(ptr noundef %29, ptr noundef @.str.4, i64 noundef %32, ptr noundef %35) #7
  br label %37

37:                                               ; preds = %28, %23, %13
  br label %38

38:                                               ; preds = %37
  %39 = load i64, ptr %5, align 8
  %40 = add i64 %39, 1
  store i64 %40, ptr %5, align 8
  br label %7

41:                                               ; preds = %7
  ret i32 0
}