; Function Attrs: nofree nounwind uwtable
define noundef i32 @cli_hashtab_store(ptr nocapture noundef readonly %0, ptr nocapture noundef %1) local_unnamed_addr #12 {
  %3 = getelementptr inbounds i8, ptr %0, i64 8
  %4 = load i64, ptr %3, align 8
  %.not12 = icmp eq i64 %4, 0
  br i1 %.not12, label %._crit_edge, label %.lr.ph

.lr.ph:                                           ; preds = %2, %13
  %5 = phi i64 [ %14, %13 ], [ %4, %2 ]
  %.011 = phi i64 [ %15, %13 ], [ 0, %2 ]
  %6 = load ptr, ptr %0, align 8
  %7 = getelementptr inbounds %struct.cli_element, ptr %6, i64 %.011
  %8 = load ptr, ptr %7, align 8
  %.not = icmp eq ptr %8, null
  %.not10 = icmp eq ptr %8, @DELETED_KEY
  %or.cond = or i1 %.not, %.not10
  br i1 %or.cond, label %13, label %9

9:                                                ; preds = %.lr.ph
  %10 = getelementptr inbounds i8, ptr %7, i64 8
  %11 = load i64, ptr %10, align 8
  %12 = tail call i32 (ptr, ptr, ...) @fprintf(ptr noundef %1, ptr noundef nonnull @.str.4, i64 noundef %11, ptr noundef nonnull %8) #18
  %.pre = load i64, ptr %3, align 8
  br label %13

13:                                               ; preds = %.lr.ph, %9
  %14 = phi i64 [ %5, %.lr.ph ], [ %.pre, %9 ]
  %15 = add nuw i64 %.011, 1
  %16 = icmp ult i64 %15, %14
  br i1 %16, label %.lr.ph, label %._crit_edge

._crit_edge:                                      ; preds = %13, %2
  ret i32 0
}